target datalayout = "e-m:e-p270:32:32-p271:32:32-p272:64:64-i64:64-i128:128-f80:128-n8:16:32:64-S128"
target triple = "x86_64-pc-linux-gnu"

@.str.18 = private unnamed_addr constant [7 x i8] c"POLLIN\00", align 1
@.str.19 = private unnamed_addr constant [10 x i8] c"%sPOLLPRI\00", align 1
@.str.20 = private unnamed_addr constant [2 x i8] c"|\00", align 1
@.str.21 = private unnamed_addr constant [1 x i8] zeroinitializer, align 1
@.str.22 = private unnamed_addr constant [10 x i8] c"%sPOLLOUT\00", align 1
@.str.23 = private unnamed_addr constant [10 x i8] c"%sPOLLHUP\00", align 1
@.str.24 = private unnamed_addr constant [11 x i8] c"%sPOLLNVAL\00", align 1
@.str.25 = private unnamed_addr constant [10 x i8] c"%sPOLLERR\00", align 1
@.str.26 = private unnamed_addr constant [2 x i8] c"0\00", align 1
@.str.27 = private unnamed_addr constant [9 x i8] c"(0x%04x)\00", align 1

; Function Attrs: nounwind uwtable
define dso_local ptr @poll_revents_to_str(i16 noundef signext %0) #0 {
  %2 = alloca i16, align 2
  %3 = alloca ptr, align 8
  store i16 %0, ptr %2, align 2
  call void @llvm.lifetime.start.p0(i64 8, ptr %3) #10
  store ptr null, ptr %3, align 8
  %4 = load i16, ptr %2, align 2
  %5 = sext i16 %4 to i32
  %6 = and i32 %5, 1
  %7 = icmp ne i32 %6, 0
  br i1 %7, label %8, label %9

8:                                                ; preds = %1
  call void (ptr, ptr, ...) @_xstrfmtcat(ptr noundef %3, ptr noundef @.str.18)
  br label %9

9:                                                ; preds = %8, %1
  %10 = load i16, ptr %2, align 2
  %11 = sext i16 %10 to i32
  %12 = and i32 %11, 2
  %13 = icmp ne i32 %12, 0
  br i1 %13, label %14, label %18

14:                                               ; preds = %9
  %15 = load ptr, ptr %3, align 8
  %16 = icmp ne ptr %15, null
  %17 = select i1 %16, ptr @.str.20, ptr @.str.21
  call void (ptr, ptr, ...) @_xstrfmtcat(ptr noundef %3, ptr noundef @.str.19, ptr noundef %17)
  br label %18

18:                                               ; preds = %14, %9
  %19 = load i16, ptr %2, align 2
  %20 = sext i16 %19 to i32
  %21 = and i32 %20, 4
  %22 = icmp ne i32 %21, 0
  br i1 %22, label %23, label %27

23:                                               ; preds = %18
  %24 = load ptr, ptr %3, align 8
  %25 = icmp ne ptr %24, null
  %26 = select i1 %25, ptr @.str.20, ptr @.str.21
  call void (ptr, ptr, ...) @_xstrfmtcat(ptr noundef %3, ptr noundef @.str.22, ptr noundef %26)
  br label %27

27:                                               ; preds = %23, %18
  %28 = load i16, ptr %2, align 2
  %29 = sext i16 %28 to i32
  %30 = and i32 %29, 16
  %31 = icmp ne i32 %30, 0
  br i1 %31, label %32, label %36

32:                                               ; preds = %27
  %33 = load ptr, ptr %3, align 8
  %34 = icmp ne ptr %33, null
  %35 = select i1 %34, ptr @.str.20, ptr @.str.21
  call void (ptr, ptr, ...) @_xstrfmtcat(ptr noundef %3, ptr noundef @.str.23, ptr noundef %35)
  br label %36

36:                                               ; preds = %32, %27
  %37 = load i16, ptr %2, align 2
  %38 = sext i16 %37 to i32
  %39 = and i32 %38, 32
  %40 = icmp ne i32 %39, 0
  br i1 %40, label %41, label %45

41:                                               ; preds = %36
  %42 = load ptr, ptr %3, align 8
  %43 = icmp ne ptr %42, null
  %44 = select i1 %43, ptr @.str.20, ptr @.str.21
  call void (ptr, ptr, ...) @_xstrfmtcat(ptr noundef %3, ptr noundef @.str.24, ptr noundef %44)
  br label %45

45:                                               ; preds = %41, %36
  %46 = load i16, ptr %2, align 2
  %47 = sext i16 %46 to i32
  %48 = and i32 %47, 8
  %49 = icmp ne i32 %48, 0
  br i1 %49, label %50, label %54

50:                                               ; preds = %45
  %51 = load ptr, ptr %3, align 8
  %52 = icmp ne ptr %51, null
  %53 = select i1 %52, ptr @.str.20, ptr @.str.21
  call void (ptr, ptr, ...) @_xstrfmtcat(ptr noundef %3, ptr noundef @.str.25, ptr noundef %53)
  br label %54

54:                                               ; preds = %50, %45
  %55 = load i16, ptr %2, align 2
  %56 = icmp ne i16 %55, 0
  br i1 %56, label %58, label %57

57:                                               ; preds = %54
  call void (ptr, ptr, ...) @_xstrfmtcat(ptr noundef %3, ptr noundef @.str.26)
  br label %61

58:                                               ; preds = %54
  %59 = load i16, ptr %2, align 2
  %60 = sext i16 %59 to i32
  call void (ptr, ptr, ...) @_xstrfmtcat(ptr noundef %3, ptr noundef @.str.27, i32 noundef %60)
  br label %61

61:                                               ; preds = %58, %57
  %62 = load ptr, ptr %3, align 8
  call void @llvm.lifetime.end.p0(i64 8, ptr %3) #10
  ret ptr %62
}