; Function Attrs: nounwind uwtable
define dso_local ptr @poll_revents_to_str(i16 noundef signext %0) local_unnamed_addr #0 {
  %2 = alloca ptr, align 8
  call void @llvm.lifetime.start.p0(i64 8, ptr nonnull %2) #10
  store ptr null, ptr %2, align 8
  %3 = sext i16 %0 to i32
  %4 = and i16 %0, 1
  %.not = icmp eq i16 %4, 0
  br i1 %.not, label %6, label %5

5:                                                ; preds = %1
  call void (ptr, ptr, ...) @_xstrfmtcat(ptr noundef nonnull %2, ptr noundef nonnull @.str.18) #10
  br label %6

6:                                                ; preds = %5, %1
  %7 = and i16 %0, 2
  %.not8 = icmp eq i16 %7, 0
  br i1 %.not8, label %11, label %8

8:                                                ; preds = %6
  %9 = load ptr, ptr %2, align 8
  %.not9 = icmp eq ptr %9, null
  %10 = select i1 %.not9, ptr @.str.21, ptr @.str.20
  call void (ptr, ptr, ...) @_xstrfmtcat(ptr noundef nonnull %2, ptr noundef nonnull @.str.19, ptr noundef nonnull %10) #10
  br label %11

11:                                               ; preds = %8, %6
  %12 = and i16 %0, 4
  %.not10 = icmp eq i16 %12, 0
  br i1 %.not10, label %16, label %13

13:                                               ; preds = %11
  %14 = load ptr, ptr %2, align 8
  %.not11 = icmp eq ptr %14, null
  %15 = select i1 %.not11, ptr @.str.21, ptr @.str.20
  call void (ptr, ptr, ...) @_xstrfmtcat(ptr noundef nonnull %2, ptr noundef nonnull @.str.22, ptr noundef nonnull %15) #10
  br label %16

16:                                               ; preds = %13, %11
  %17 = and i16 %0, 16
  %.not12 = icmp eq i16 %17, 0
  br i1 %.not12, label %21, label %18

18:                                               ; preds = %16
  %19 = load ptr, ptr %2, align 8
  %.not13 = icmp eq ptr %19, null
  %20 = select i1 %.not13, ptr @.str.21, ptr @.str.20
  call void (ptr, ptr, ...) @_xstrfmtcat(ptr noundef nonnull %2, ptr noundef nonnull @.str.23, ptr noundef nonnull %20) #10
  br label %21

21:                                               ; preds = %18, %16
  %22 = and i16 %0, 32
  %.not14 = icmp eq i16 %22, 0
  br i1 %.not14, label %26, label %23

23:                                               ; preds = %21
  %24 = load ptr, ptr %2, align 8
  %.not15 = icmp eq ptr %24, null
  %25 = select i1 %.not15, ptr @.str.21, ptr @.str.20
  call void (ptr, ptr, ...) @_xstrfmtcat(ptr noundef nonnull %2, ptr noundef nonnull @.str.24, ptr noundef nonnull %25) #10
  br label %26

26:                                               ; preds = %23, %21
  %27 = and i16 %0, 8
  %.not16 = icmp eq i16 %27, 0
  br i1 %.not16, label %30, label %.thread

.thread:                                          ; preds = %26
  %28 = load ptr, ptr %2, align 8
  %.not17 = icmp eq ptr %28, null
  %29 = select i1 %.not17, ptr @.str.21, ptr @.str.20
  call void (ptr, ptr, ...) @_xstrfmtcat(ptr noundef nonnull %2, ptr noundef nonnull @.str.25, ptr noundef nonnull %29) #10
  br label %32

30:                                               ; preds = %26
  %.not18 = icmp eq i16 %0, 0
  br i1 %.not18, label %31, label %32

31:                                               ; preds = %30
  call void (ptr, ptr, ...) @_xstrfmtcat(ptr noundef nonnull %2, ptr noundef nonnull @.str.26) #10
  br label %33

32:                                               ; preds = %.thread, %30
  call void (ptr, ptr, ...) @_xstrfmtcat(ptr noundef nonnull %2, ptr noundef nonnull @.str.27, i32 noundef %3) #10
  br label %33

33:                                               ; preds = %32, %31
  %34 = load ptr, ptr %2, align 8
  call void @llvm.lifetime.end.p0(i64 8, ptr nonnull %2) #10
  ret ptr %34
}